; Function Attrs: null_pointer_is_valid sspstrong uwtable
define internal ptr @float64_avp(ptr noundef readonly captures(none) %0, ptr noundef readonly captures(none) %1, ptr noundef %2, ptr readnone captures(none) %3) #0 {
  %5 = tail call i32 @tvb_reported_length(ptr noundef %2)
  %6 = icmp eq i32 %5, 8
  %7 = load ptr, ptr %0, align 8
  br i1 %6, label %8, label %22

8:                                                ; preds = %4
  %.not = icmp eq ptr %7, null
  br i1 %.not, label %proto_item_set_generated.exit, label %9

9:                                                ; preds = %8
  %10 = getelementptr inbounds nuw i8, ptr %1, i64 28
  %11 = load i32, ptr %10, align 4
  %12 = tail call ptr @proto_tree_add_item(ptr noundef nonnull %7, i32 noundef %11, ptr noundef %2, i32 noundef 0, i32 noundef 8, i32 noundef 0)
  %13 = getelementptr inbounds nuw i8, ptr %0, i64 8
  %14 = load ptr, ptr %13, align 8
  %15 = getelementptr inbounds nuw i8, ptr %14, i64 408
  %16 = load ptr, ptr %15, align 8
  %17 = tail call noalias dereferenceable_or_null(241) ptr @wmem_alloc(ptr noundef %16, i64 noundef 241) #15
  %18 = getelementptr inbounds nuw i8, ptr %12, i64 40
  %19 = load ptr, ptr %18, align 8
  tail call void @proto_item_fill_label(ptr noundef %19, ptr noundef %17, ptr noundef null)
  %20 = tail call ptr @strstr(ptr noundef %17, ptr noundef nonnull dereferenceable(1) @.str.70) #18
  %21 = getelementptr i8, ptr %20, i64 2
  br label %proto_item_set_generated.exit

22:                                               ; preds = %4
  %23 = load i32, ptr @hf_diameter_avp_data_wrong_length, align 4
  %24 = tail call ptr (ptr, i32, ptr, i32, i32, ptr, ptr, ...) @proto_tree_add_bytes_format(ptr noundef %7, i32 noundef %23, ptr noundef %2, i32 noundef 0, i32 noundef %5, ptr noundef null, ptr noundef nonnull @.str.132)
  %25 = getelementptr inbounds nuw i8, ptr %0, i64 8
  %26 = load ptr, ptr %25, align 8
  %27 = tail call ptr (ptr, ptr, ptr, ptr, ...) @expert_add_info_format(ptr noundef %26, ptr noundef %24, ptr noundef nonnull @ei_diameter_avp_len, ptr noundef nonnull @.str.133, i32 noundef %5)
  %.not.i = icmp eq ptr %24, null
  br i1 %.not.i, label %proto_item_set_generated.exit, label %28

28:                                               ; preds = %22
  %29 = getelementptr inbounds nuw i8, ptr %24, i64 40
  %30 = load ptr, ptr %29, align 8
  %.not5.i = icmp eq ptr %30, null
  br i1 %.not5.i, label %proto_item_set_generated.exit, label %31

31:                                               ; preds = %28
  %32 = getelementptr inbounds nuw i8, ptr %30, i64 28
  %33 = load i32, ptr %32, align 4
  %34 = or i32 %33, 2
  store i32 %34, ptr %32, align 4
  br label %proto_item_set_generated.exit

proto_item_set_generated.exit:                    ; preds = %31, %28, %22, %8, %9
  %.0 = phi ptr [ %21, %9 ], [ null, %8 ], [ null, %22 ], [ null, %28 ], [ null, %31 ]
  ret ptr %.0
}